target datalayout = "e-m:e-p270:32:32-p271:32:32-p272:64:64-i64:64-i128:128-f80:128-n8:16:32:64-S128"
target triple = "x86_64-pc-linux-gnu"

%struct.expert_field = type { i32, i32 }
%struct.isis_data = type { i8, i8, i16, ptr, ptr }

@hf_isis_lsp_partition_designated_l2_is = internal global i32 0, align 4
@ei_isis_lsp_short_clv = internal global %struct.expert_field zeroinitializer, align 4
@ei_isis_lsp_long_clv = internal global %struct.expert_field zeroinitializer, align 4
@.str.833 = private unnamed_addr constant [34 x i8] c"short lsp partition DIS(%d vs %d)\00", align 1
@.str.963 = private unnamed_addr constant [37 x i8] c"Long lsp partition DIS, %d left over\00", align 1

; Function Attrs: null_pointer_is_valid sspstrong uwtable
define internal void @dissect_lsp_partition_dis_clv(ptr noundef %0, ptr noundef %1, ptr noundef %2, i32 noundef %3, ptr noundef %4, i32 noundef %5) #0 {
  %7 = alloca ptr, align 8
  %8 = alloca ptr, align 8
  %9 = alloca ptr, align 8
  %10 = alloca i32, align 4
  %11 = alloca ptr, align 8
  %12 = alloca i32, align 4
  store ptr %0, ptr %7, align 8
  store ptr %1, ptr %8, align 8
  store ptr %2, ptr %9, align 8
  store i32 %3, ptr %10, align 4
  store ptr %4, ptr %11, align 8
  store i32 %5, ptr %12, align 4
  %13 = load i32, ptr %12, align 4
  %14 = load ptr, ptr %11, align 8
  %15 = getelementptr inbounds nuw %struct.isis_data, ptr %14, i32 0, i32 1
  %16 = load i8, ptr %15, align 1
  %17 = zext i8 %16 to i32
  %18 = icmp slt i32 %13, %17
  br i1 %18, label %19, label %30

19:                                               ; preds = %6
  %20 = load ptr, ptr %9, align 8
  %21 = load ptr, ptr %8, align 8
  %22 = load ptr, ptr %7, align 8
  %23 = load i32, ptr %10, align 4
  %24 = load i32, ptr %12, align 4
  %25 = load ptr, ptr %11, align 8
  %26 = getelementptr inbounds nuw %struct.isis_data, ptr %25, i32 0, i32 1
  %27 = load i8, ptr %26, align 1
  %28 = zext i8 %27 to i32
  %29 = call ptr (ptr, ptr, ptr, ptr, i32, i32, ptr, ...) @proto_tree_add_expert_format(ptr noundef %20, ptr noundef %21, ptr noundef @ei_isis_lsp_short_clv, ptr noundef %22, i32 noundef %23, i32 noundef -1, ptr noundef @.str.833, i32 noundef %24, i32 noundef %28)
  br label %61

30:                                               ; preds = %6
  %31 = load ptr, ptr %9, align 8
  %32 = load i32, ptr @hf_isis_lsp_partition_designated_l2_is, align 4
  %33 = load ptr, ptr %7, align 8
  %34 = load i32, ptr %10, align 4
  %35 = load ptr, ptr %11, align 8
  %36 = getelementptr inbounds nuw %struct.isis_data, ptr %35, i32 0, i32 1
  %37 = load i8, ptr %36, align 1
  %38 = zext i8 %37 to i32
  %39 = call ptr @proto_tree_add_item(ptr noundef %31, i32 noundef %32, ptr noundef %33, i32 noundef %34, i32 noundef %38, i32 noundef 0)
  %40 = load ptr, ptr %11, align 8
  %41 = getelementptr inbounds nuw %struct.isis_data, ptr %40, i32 0, i32 1
  %42 = load i8, ptr %41, align 1
  %43 = zext i8 %42 to i32
  %44 = load i32, ptr %12, align 4
  %45 = sub i32 %44, %43
  store i32 %45, ptr %12, align 4
  %46 = load ptr, ptr %11, align 8
  %47 = getelementptr inbounds nuw %struct.isis_data, ptr %46, i32 0, i32 1
  %48 = load i8, ptr %47, align 1
  %49 = zext i8 %48 to i32
  %50 = load i32, ptr %10, align 4
  %51 = add i32 %50, %49
  store i32 %51, ptr %10, align 4
  %52 = load i32, ptr %12, align 4
  %53 = icmp sgt i32 %52, 0
  br i1 %53, label %54, label %61

54:                                               ; preds = %30
  %55 = load ptr, ptr %9, align 8
  %56 = load ptr, ptr %8, align 8
  %57 = load ptr, ptr %7, align 8
  %58 = load i32, ptr %10, align 4
  %59 = load i32, ptr %12, align 4
  %60 = call ptr (ptr, ptr, ptr, ptr, i32, i32, ptr, ...) @proto_tree_add_expert_format(ptr noundef %55, ptr noundef %56, ptr noundef @ei_isis_lsp_long_clv, ptr noundef %57, i32 noundef %58, i32 noundef -1, ptr noundef @.str.963, i32 noundef %59)
  br label %61

61:                                               ; preds = %19, %54, %30
  ret void
}