; Function Attrs: null_pointer_is_valid sspstrong uwtable
define internal void @dissect_lsp_partition_dis_clv(ptr noundef %0, ptr noundef %1, ptr noundef %2, i32 noundef %3, ptr noundef readonly captures(none) %4, i32 noundef %5) #0 {
  %7 = getelementptr inbounds nuw i8, ptr %4, i64 1
  %8 = load i8, ptr %7, align 1
  %9 = zext i8 %8 to i32
  %10 = icmp slt i32 %5, %9
  br i1 %10, label %11, label %13

11:                                               ; preds = %6
  %12 = tail call ptr (ptr, ptr, ptr, ptr, i32, i32, ptr, ...) @proto_tree_add_expert_format(ptr noundef %2, ptr noundef %1, ptr noundef nonnull @ei_isis_lsp_short_clv, ptr noundef %0, i32 noundef %3, i32 noundef -1, ptr noundef nonnull @.str.833, i32 noundef %5, i32 noundef %9)
  br label %23

13:                                               ; preds = %6
  %14 = load i32, ptr @hf_isis_lsp_partition_designated_l2_is, align 4
  %15 = tail call ptr @proto_tree_add_item(ptr noundef %2, i32 noundef %14, ptr noundef %0, i32 noundef %3, i32 noundef %9, i32 noundef 0)
  %16 = load i8, ptr %7, align 1
  %17 = zext i8 %16 to i32
  %18 = sub nsw i32 %5, %17
  %19 = icmp sgt i32 %18, 0
  br i1 %19, label %20, label %23

20:                                               ; preds = %13
  %21 = add i32 %3, %17
  %22 = tail call ptr (ptr, ptr, ptr, ptr, i32, i32, ptr, ...) @proto_tree_add_expert_format(ptr noundef %2, ptr noundef %1, ptr noundef nonnull @ei_isis_lsp_long_clv, ptr noundef %0, i32 noundef %21, i32 noundef -1, ptr noundef nonnull @.str.963, i32 noundef %18)
  br label %23

23:                                               ; preds = %20, %13, %11
  ret void
}